target datalayout = "e-m:e-p270:32:32-p271:32:32-p272:64:64-i64:64-i128:128-f80:128-n8:16:32:64-S128"
target triple = "x86_64-pc-linux-gnu"

%struct.WalWriteMethod = type { ptr, i32, i32, i8, ptr, i32 }

; Function Attrs: nounwind uwtable
define dso_local ptr @GetLastWalMethodError(ptr noundef %0) #0 {
  %2 = alloca ptr, align 8
  %3 = alloca ptr, align 8
  store ptr %0, ptr %3, align 8
  %4 = load ptr, ptr %3, align 8
  %5 = getelementptr inbounds nuw %struct.WalWriteMethod, ptr %4, i32 0, i32 4
  %6 = load ptr, ptr %5, align 8
  %7 = icmp ne ptr %6, null
  br i1 %7, label %8, label %12

8:                                                ; preds = %1
  %9 = load ptr, ptr %3, align 8
  %10 = getelementptr inbounds nuw %struct.WalWriteMethod, ptr %9, i32 0, i32 4
  %11 = load ptr, ptr %10, align 8
  store ptr %11, ptr %2, align 8
  br label %17

12:                                               ; preds = %1
  %13 = load ptr, ptr %3, align 8
  %14 = getelementptr inbounds nuw %struct.WalWriteMethod, ptr %13, i32 0, i32 5
  %15 = load i32, ptr %14, align 8
  %16 = call ptr @pg_strerror(i32 noundef %15)
  store ptr %16, ptr %2, align 8
  br label %17

17:                                               ; preds = %12, %8
  %18 = load ptr, ptr %2, align 8
  ret ptr %18
}